; ModuleID = '20/452.c'
source_filename = "20/452.c"
target datalayout = "e-m:e-p270:32:32-p271:32:32-p272:64:64-i64:64-f80:128-n8:16:32:64-S128"
target triple = "x86_64-pc-linux-gnu"

@.str = private unnamed_addr constant [5 x i8] c"%s%s\00", align 1
@.str.1 = private unnamed_addr constant [3 x i8] c"%c\00", align 1
@.str.2 = private unnamed_addr constant [2 x i8] c"\0A\00", align 1

; Function Attrs: noinline nounwind uwtable
define dso_local void @insert(i8* %0, i8* %1) #0 {
  %3 = alloca i8*, align 8
  %4 = alloca i8*, align 8
  %5 = alloca i32, align 4
  %6 = alloca i32, align 4
  %7 = alloca i32, align 4
  %8 = alloca i32, align 4
  %9 = alloca i32, align 4
  %10 = alloca i32, align 4
  %11 = alloca i32, align 4
  %12 = alloca [10 x i8], align 1
  store i8* %0, i8** %3, align 8
  store i8* %1, i8** %4, align 8
  %13 = bitcast [10 x i8]* %12 to i8*
  call void @llvm.memset.p0i8.i64(i8* align 1 %13, i8 0, i64 10, i1 false)
  %14 = load i8*, i8** %3, align 8
  %15 = call i64 @strlen(i8* %14) #4
  %16 = trunc i64 %15 to i32
  store i32 %16, i32* %8, align 4
  %17 = load i8*, i8** %4, align 8
  %18 = call i64 @strlen(i8* %17) #4
  %19 = trunc i64 %18 to i32
  store i32 %19, i32* %9, align 4
  store i32 0, i32* %11, align 4
  store i32 0, i32* %5, align 4
  br label %20

20:                                               ; preds = %42, %2
  %21 = load i32, i32* %5, align 4
  %22 = load i32, i32* %8, align 4
  %23 = sub nsw i32 %22, 1
  %24 = icmp sle i32 %21, %23
  br i1 %24, label %25, label %45

25:                                               ; preds = %20
  %26 = load i8*, i8** %3, align 8
  %27 = load i32, i32* %5, align 4
  %28 = sext i32 %27 to i64
  %29 = getelementptr inbounds i8, i8* %26, i64 %28
  %30 = load i8, i8* %29, align 1
  %31 = sext i8 %30 to i32
  %32 = load i8*, i8** %3, align 8
  %33 = load i32, i32* %11, align 4
  %34 = sext i32 %33 to i64
  %35 = getelementptr inbounds i8, i8* %32, i64 %34
  %36 = load i8, i8* %35, align 1
  %37 = sext i8 %36 to i32
  %38 = icmp sgt i32 %31, %37
  br i1 %38, label %39, label %41

39:                                               ; preds = %25
  %40 = load i32, i32* %5, align 4
  store i32 %40, i32* %11, align 4
  br label %41

41:                                               ; preds = %39, %25
  br label %42

42:                                               ; preds = %41
  %43 = load i32, i32* %5, align 4
  %44 = add nsw i32 %43, 1
  store i32 %44, i32* %5, align 4
  br label %20

45:                                               ; preds = %20
  store i32 0, i32* %5, align 4
  %46 = load i32, i32* %11, align 4
  %47 = add nsw i32 %46, 1
  store i32 %47, i32* %6, align 4
  br label %48

48:                                               ; preds = %62, %45
  %49 = load i32, i32* %6, align 4
  %50 = load i32, i32* %8, align 4
  %51 = sub nsw i32 %50, 1
  %52 = icmp sle i32 %49, %51
  br i1 %52, label %53, label %67

53:                                               ; preds = %48
  %54 = load i8*, i8** %3, align 8
  %55 = load i32, i32* %6, align 4
  %56 = sext i32 %55 to i64
  %57 = getelementptr inbounds i8, i8* %54, i64 %56
  %58 = load i8, i8* %57, align 1
  %59 = load i32, i32* %5, align 4
  %60 = sext i32 %59 to i64
  %61 = getelementptr inbounds [10 x i8], [10 x i8]* %12, i64 0, i64 %60
  store i8 %58, i8* %61, align 1
  br label %62

62:                                               ; preds = %53
  %63 = load i32, i32* %5, align 4
  %64 = add nsw i32 %63, 1
  store i32 %64, i32* %5, align 4
  %65 = load i32, i32* %6, align 4
  %66 = add nsw i32 %65, 1
  store i32 %66, i32* %6, align 4
  br label %48

67:                                               ; preds = %48
  %68 = getelementptr inbounds [10 x i8], [10 x i8]* %12, i64 0, i64 0
  %69 = call i64 @strlen(i8* %68) #4
  %70 = trunc i64 %69 to i32
  store i32 %70, i32* %10, align 4
  store i32 0, i32* %5, align 4
  %71 = load i32, i32* %11, align 4
  %72 = add nsw i32 %71, 1
  store i32 %72, i32* %6, align 4
  br label %73

73:                                               ; preds = %87, %67
  %74 = load i32, i32* %5, align 4
  %75 = load i32, i32* %9, align 4
  %76 = icmp sle i32 %74, %75
  br i1 %76, label %77, label %92

77:                                               ; preds = %73
  %78 = load i8*, i8** %4, align 8
  %79 = load i32, i32* %5, align 4
  %80 = sext i32 %79 to i64
  %81 = getelementptr inbounds i8, i8* %78, i64 %80
  %82 = load i8, i8* %81, align 1
  %83 = load i8*, i8** %3, align 8
  %84 = load i32, i32* %6, align 4
  %85 = sext i32 %84 to i64
  %86 = getelementptr inbounds i8, i8* %83, i64 %85
  store i8 %82, i8* %86, align 1
  br label %87

87:                                               ; preds = %77
  %88 = load i32, i32* %5, align 4
  %89 = add nsw i32 %88, 1
  store i32 %89, i32* %5, align 4
  %90 = load i32, i32* %6, align 4
  %91 = add nsw i32 %90, 1
  store i32 %91, i32* %6, align 4
  br label %73

92:                                               ; preds = %73
  store i32 0, i32* %5, align 4
  %93 = load i32, i32* %6, align 4
  %94 = sub nsw i32 %93, 1
  store i32 %94, i32* %7, align 4
  br label %95

95:                                               ; preds = %109, %92
  %96 = load i32, i32* %5, align 4
  %97 = load i32, i32* %10, align 4
  %98 = sub nsw i32 %97, 1
  %99 = icmp sle i32 %96, %98
  br i1 %99, label %100, label %114

100:                                              ; preds = %95
  %101 = load i32, i32* %5, align 4
  %102 = sext i32 %101 to i64
  %103 = getelementptr inbounds [10 x i8], [10 x i8]* %12, i64 0, i64 %102
  %104 = load i8, i8* %103, align 1
  %105 = load i8*, i8** %3, align 8
  %106 = load i32, i32* %7, align 4
  %107 = sext i32 %106 to i64
  %108 = getelementptr inbounds i8, i8* %105, i64 %107
  store i8 %104, i8* %108, align 1
  br label %109

109:                                              ; preds = %100
  %110 = load i32, i32* %5, align 4
  %111 = add nsw i32 %110, 1
  store i32 %111, i32* %5, align 4
  %112 = load i32, i32* %7, align 4
  %113 = add nsw i32 %112, 1
  store i32 %113, i32* %7, align 4
  br label %95

114:                                              ; preds = %95
  ret void
}

; Function Attrs: argmemonly nounwind willreturn
declare void @llvm.memset.p0i8.i64(i8* nocapture writeonly, i8, i64, i1 immarg) #1

; Function Attrs: nounwind readonly
declare dso_local i64 @strlen(i8*) #2

; Function Attrs: noinline nounwind uwtable
define dso_local void @main() #0 {
  %1 = alloca [20 x i8], align 16
  %2 = alloca [4 x i8], align 1
  %3 = alloca i32, align 4
  %4 = alloca i32, align 4
  %5 = bitcast [20 x i8]* %1 to i8*
  call void @llvm.memset.p0i8.i64(i8* align 16 %5, i8 0, i64 20, i1 false)
  %6 = bitcast [4 x i8]* %2 to i8*
  call void @llvm.memset.p0i8.i64(i8* align 1 %6, i8 0, i64 4, i1 false)
  br label %7

7:                                                ; preds = %56, %0
  %8 = getelementptr inbounds [20 x i8], [20 x i8]* %1, i64 0, i64 0
  %9 = getelementptr inbounds [4 x i8], [4 x i8]* %2, i64 0, i64 0
  %10 = call i32 (i8*, ...) @__isoc99_scanf(i8* getelementptr inbounds ([5 x i8], [5 x i8]* @.str, i64 0, i64 0), i8* %8, i8* %9)
  %11 = icmp ne i32 %10, -1
  br i1 %11, label %12, label %57

12:                                               ; preds = %7
  %13 = getelementptr inbounds [20 x i8], [20 x i8]* %1, i64 0, i64 0
  %14 = getelementptr inbounds [4 x i8], [4 x i8]* %2, i64 0, i64 0
  call void @insert(i8* %13, i8* %14)
  %15 = getelementptr inbounds [20 x i8], [20 x i8]* %1, i64 0, i64 0
  %16 = call i64 @strlen(i8* %15) #4
  %17 = trunc i64 %16 to i32
  store i32 %17, i32* %3, align 4
  store i32 0, i32* %4, align 4
  br label %18

18:                                               ; preds = %30, %12
  %19 = load i32, i32* %4, align 4
  %20 = load i32, i32* %3, align 4
  %21 = sub nsw i32 %20, 1
  %22 = icmp sle i32 %19, %21
  br i1 %22, label %23, label %33

23:                                               ; preds = %18
  %24 = load i32, i32* %4, align 4
  %25 = sext i32 %24 to i64
  %26 = getelementptr inbounds [20 x i8], [20 x i8]* %1, i64 0, i64 %25
  %27 = load i8, i8* %26, align 1
  %28 = sext i8 %27 to i32
  %29 = call i32 (i8*, ...) @printf(i8* getelementptr inbounds ([3 x i8], [3 x i8]* @.str.1, i64 0, i64 0), i32 %28)
  br label %30

30:                                               ; preds = %23
  %31 = load i32, i32* %4, align 4
  %32 = add nsw i32 %31, 1
  store i32 %32, i32* %4, align 4
  br label %18

33:                                               ; preds = %18
  %34 = call i32 (i8*, ...) @printf(i8* getelementptr inbounds ([2 x i8], [2 x i8]* @.str.2, i64 0, i64 0))
  store i32 0, i32* %4, align 4
  br label %35

35:                                               ; preds = %42, %33
  %36 = load i32, i32* %4, align 4
  %37 = icmp sle i32 %36, 19
  br i1 %37, label %38, label %45

38:                                               ; preds = %35
  %39 = load i32, i32* %4, align 4
  %40 = sext i32 %39 to i64
  %41 = getelementptr inbounds [20 x i8], [20 x i8]* %1, i64 0, i64 %40
  store i8 0, i8* %41, align 1
  br label %42

42:                                               ; preds = %38
  %43 = load i32, i32* %4, align 4
  %44 = add nsw i32 %43, 1
  store i32 %44, i32* %4, align 4
  br label %35

45:                                               ; preds = %35
  store i32 0, i32* %4, align 4
  br label %46

46:                                               ; preds = %53, %45
  %47 = load i32, i32* %4, align 4
  %48 = icmp sle i32 %47, 3
  br i1 %48, label %49, label %56

49:                                               ; preds = %46
  %50 = load i32, i32* %4, align 4
  %51 = sext i32 %50 to i64
  %52 = getelementptr inbounds [4 x i8], [4 x i8]* %2, i64 0, i64 %51
  store i8 0, i8* %52, align 1
  br label %53

53:                                               ; preds = %49
  %54 = load i32, i32* %4, align 4
  %55 = add nsw i32 %54, 1
  store i32 %55, i32* %4, align 4
  br label %46

56:                                               ; preds = %46
  br label %7

57:                                               ; preds = %7
  ret void
}

declare dso_local i32 @__isoc99_scanf(i8*, ...) #3

declare dso_local i32 @printf(i8*, ...) #3


!llvm.module.flags = !{!0}
!llvm.ident = !{!1}

!0 = !{i32 1, !"wchar_size", i32 4}
!1 = !{!"clang version 10.0.0-4ubuntu1 "}
